target datalayout = "e-m:e-p270:32:32-p271:32:32-p272:64:64-i64:64-i128:128-f80:128-n8:16:32:64-S128"
target triple = "x86_64-pc-linux-gnu"

%"class.std::__cxx11::basic_string" = type { %"struct.std::__cxx11::basic_string<char>::_Alloc_hider", i64, %union.anon }
%"struct.std::__cxx11::basic_string<char>::_Alloc_hider" = type { ptr }
%union.anon = type { i64, [8 x i8] }
%"class.std::basic_string_view" = type { i64, ptr }
%class.cmOutputConverter = type <{ ptr, %class.cmStateSnapshot, i8, [7 x i8], %"class.std::__cxx11::basic_string", %"class.std::__cxx11::basic_string", i32, [4 x i8] }>
%class.cmStateSnapshot = type { ptr, %"class.cmLinkedTree<cmStateDetail::SnapshotDataType>::iterator" }
%"class.cmLinkedTree<cmStateDetail::SnapshotDataType>::iterator" = type { ptr, i64 }

; Function Attrs: mustprogress uwtable
define dso_local noundef ptr @_ZNK17cmOutputConverter8GetStateEv(ptr noundef nonnull align 8 dereferenceable(108) %0) #4 align 2 {
  %2 = alloca ptr, align 8
  store ptr %0, ptr %2, align 8
  %3 = load ptr, ptr %2, align 8
  %4 = getelementptr inbounds %class.cmOutputConverter, ptr %3, i32 0, i32 1
  %5 = call noundef ptr @_ZNK15cmStateSnapshot8GetStateEv(ptr noundef nonnull align 8 dereferenceable(24) %4)
  ret ptr %5
}

; Function Attrs: mustprogress uwtable
define dso_local void @_ZNK17cmOutputConverter14EscapeForShellB5cxx11ESt17basic_string_viewIcSt11char_traitsIcEEbbbbb(ptr dead_on_unwind noalias writable sret(%"class.std::__cxx11::basic_string") align 8 %0, ptr noundef nonnull align 8 dereferenceable(108) %1, i64 %2, ptr %3, i1 noundef zeroext %4, i1 noundef zeroext %5, i1 noundef zeroext %6, i1 noundef zeroext %7, i1 noundef zeroext %8) #4 align 2 {
  %10 = alloca ptr, align 8
  %11 = alloca %"class.std::basic_string_view", align 8
  %12 = alloca ptr, align 8
  %13 = alloca i8, align 1
  %14 = alloca i8, align 1
  %15 = alloca i8, align 1
  %16 = alloca i8, align 1
  %17 = alloca i8, align 1
  %18 = alloca i32, align 4
  %19 = alloca %"class.std::basic_string_view", align 8
  store ptr %0, ptr %10, align 8
  %20 = getelementptr inbounds { i64, ptr }, ptr %11, i32 0, i32 0
  store i64 %2, ptr %20, align 8
  %21 = getelementptr inbounds { i64, ptr }, ptr %11, i32 0, i32 1
  store ptr %3, ptr %21, align 8
  store ptr %1, ptr %12, align 8
  %22 = zext i1 %4 to i8
  store i8 %22, ptr %13, align 1
  %23 = zext i1 %5 to i8
  store i8 %23, ptr %14, align 1
  %24 = zext i1 %6 to i8
  store i8 %24, ptr %15, align 1
  %25 = zext i1 %7 to i8
  store i8 %25, ptr %16, align 1
  %26 = zext i1 %8 to i8
  store i8 %26, ptr %17, align 1
  %27 = load ptr, ptr %12, align 8
  store i32 0, ptr %18, align 4
  %28 = call noundef ptr @_ZNK17cmOutputConverter8GetStateEv(ptr noundef nonnull align 8 dereferenceable(108) %27)
  %29 = call noundef zeroext i1 @_ZNK7cmState15UseWindowsVSIDEEv(ptr noundef nonnull align 8 dereferenceable(705) %28)
  br i1 %29, label %30, label %33

30:                                               ; preds = %9
  %31 = load i32, ptr %18, align 4
  %32 = or i32 %31, 2
  store i32 %32, ptr %18, align 4
  br label %41

33:                                               ; preds = %9
  %34 = getelementptr inbounds %class.cmOutputConverter, ptr %27, i32 0, i32 2
  %35 = load i8, ptr %34, align 8
  %36 = trunc i8 %35 to i1
  br i1 %36, label %40, label %37

37:                                               ; preds = %33
  %38 = load i32, ptr %18, align 4
  %39 = or i32 %38, 1
  store i32 %39, ptr %18, align 4
  br label %40

40:                                               ; preds = %37, %33
  br label %41

41:                                               ; preds = %40, %30
  %42 = load i8, ptr %16, align 1
  %43 = trunc i8 %42 to i1
  br i1 %43, label %44, label %47

44:                                               ; preds = %41
  %45 = load i32, ptr %18, align 4
  %46 = or i32 %45, 512
  store i32 %46, ptr %18, align 4
  br label %47

47:                                               ; preds = %44, %41
  %48 = load i8, ptr %13, align 1
  %49 = trunc i8 %48 to i1
  br i1 %49, label %50, label %53

50:                                               ; preds = %47
  %51 = load i32, ptr %18, align 4
  %52 = or i32 %51, 64
  store i32 %52, ptr %18, align 4
  br label %53

53:                                               ; preds = %50, %47
  %54 = load i8, ptr %14, align 1
  %55 = trunc i8 %54 to i1
  br i1 %55, label %56, label %59

56:                                               ; preds = %53
  %57 = load i32, ptr %18, align 4
  %58 = or i32 %57, 4
  store i32 %58, ptr %18, align 4
  br label %59

59:                                               ; preds = %56, %53
  %60 = load i8, ptr %15, align 1
  %61 = trunc i8 %60 to i1
  br i1 %61, label %62, label %65

62:                                               ; preds = %59
  %63 = load i32, ptr %18, align 4
  %64 = or i32 %63, 128
  store i32 %64, ptr %18, align 4
  br label %65

65:                                               ; preds = %62, %59
  %66 = load i8, ptr %17, align 1
  %67 = trunc i8 %66 to i1
  br i1 %67, label %68, label %71

68:                                               ; preds = %65
  %69 = load i32, ptr %18, align 4
  %70 = or i32 %69, 1024
  store i32 %70, ptr %18, align 4
  br label %71

71:                                               ; preds = %68, %65
  %72 = call noundef ptr @_ZNK17cmOutputConverter8GetStateEv(ptr noundef nonnull align 8 dereferenceable(108) %27)
  %73 = call noundef zeroext i1 @_ZNK7cmState14UseWatcomWMakeEv(ptr noundef nonnull align 8 dereferenceable(705) %72)
  br i1 %73, label %74, label %77

74:                                               ; preds = %71
  %75 = load i32, ptr %18, align 4
  %76 = or i32 %75, 8
  store i32 %76, ptr %18, align 4
  br label %77

77:                                               ; preds = %74, %71
  %78 = call noundef ptr @_ZNK17cmOutputConverter8GetStateEv(ptr noundef nonnull align 8 dereferenceable(108) %27)
  %79 = call noundef zeroext i1 @_ZNK7cmState12UseMinGWMakeEv(ptr noundef nonnull align 8 dereferenceable(705) %78)
  br i1 %79, label %80, label %83

80:                                               ; preds = %77
  %81 = load i32, ptr %18, align 4
  %82 = or i32 %81, 16
  store i32 %82, ptr %18, align 4
  br label %83

83:                                               ; preds = %80, %77
  %84 = call noundef ptr @_ZNK17cmOutputConverter8GetStateEv(ptr noundef nonnull align 8 dereferenceable(108) %27)
  %85 = call noundef zeroext i1 @_ZNK7cmState8UseNMakeEv(ptr noundef nonnull align 8 dereferenceable(705) %84)
  br i1 %85, label %86, label %89

86:                                               ; preds = %83
  %87 = load i32, ptr %18, align 4
  %88 = or i32 %87, 32
  store i32 %88, ptr %18, align 4
  br label %89

89:                                               ; preds = %86, %83
  %90 = call noundef ptr @_ZNK17cmOutputConverter8GetStateEv(ptr noundef nonnull align 8 dereferenceable(108) %27)
  %91 = call noundef zeroext i1 @_ZNK7cmState8UseNinjaEv(ptr noundef nonnull align 8 dereferenceable(705) %90)
  br i1 %91, label %92, label %95

92:                                               ; preds = %89
  %93 = load i32, ptr %18, align 4
  %94 = or i32 %93, 2048
  store i32 %94, ptr %18, align 4
  br label %95

95:                                               ; preds = %92, %89
  %96 = call noundef ptr @_ZNK17cmOutputConverter8GetStateEv(ptr noundef nonnull align 8 dereferenceable(108) %27)
  %97 = call noundef zeroext i1 @_ZNK7cmState15UseWindowsShellEv(ptr noundef nonnull align 8 dereferenceable(705) %96)
  br i1 %97, label %101, label %98

98:                                               ; preds = %95
  %99 = load i32, ptr %18, align 4
  %100 = or i32 %99, 256
  store i32 %100, ptr %18, align 4
  br label %101

101:                                              ; preds = %98, %95
  call void @llvm.memcpy.p0.p0.i64(ptr align 8 %19, ptr align 8 %11, i64 16, i1 false)
  %102 = load i32, ptr %18, align 4
  %103 = getelementptr inbounds { i64, ptr }, ptr %19, i32 0, i32 0
  %104 = load i64, ptr %103, align 8
  %105 = getelementptr inbounds { i64, ptr }, ptr %19, i32 0, i32 1
  %106 = load ptr, ptr %105, align 8
  call void @_ZN17cmOutputConverter14EscapeForShellB5cxx11ESt17basic_string_viewIcSt11char_traitsIcEEi(ptr dead_on_unwind writable sret(%"class.std::__cxx11::basic_string") align 8 %0, i64 %104, ptr %106, i32 noundef %102)
  ret void
}