; Function Attrs: mustprogress uwtable
define dso_local void @_ZNK17cmOutputConverter14EscapeForShellB5cxx11ESt17basic_string_viewIcSt11char_traitsIcEEbbbbb(ptr dead_on_unwind noalias writable sret(%"class.std::__cxx11::basic_string") align 8 %0, ptr noundef nonnull align 8 dereferenceable(108) %1, i64 %2, ptr %3, i1 noundef zeroext %4, i1 noundef zeroext %5, i1 noundef zeroext %6, i1 noundef zeroext %7, i1 noundef zeroext %8) local_unnamed_addr #3 align 2 {
  %10 = getelementptr inbounds i8, ptr %1, i64 8
  %11 = tail call noundef ptr @_ZNK15cmStateSnapshot8GetStateEv(ptr noundef nonnull align 8 dereferenceable(24) %10)
  %12 = tail call noundef zeroext i1 @_ZNK7cmState15UseWindowsVSIDEEv(ptr noundef nonnull align 8 dereferenceable(705) %11)
  %13 = getelementptr inbounds i8, ptr %1, i64 32
  %14 = load i8, ptr %13, align 8
  %15 = and i8 %14, 1
  %16 = xor i8 %15, 1
  %spec.select = zext nneg i8 %16 to i32
  %.0 = select i1 %12, i32 2, i32 %spec.select
  %17 = or disjoint i32 %.0, 512
  %spec.select20 = select i1 %7, i32 %17, i32 %.0
  %18 = or i32 %spec.select20, 64
  %.2 = select i1 %4, i32 %18, i32 %spec.select20
  %19 = or i32 %.2, 4
  %.3 = select i1 %5, i32 %19, i32 %.2
  %20 = or i32 %.3, 128
  %.4 = select i1 %6, i32 %20, i32 %.3
  %21 = or i32 %.4, 1024
  %.5 = select i1 %8, i32 %21, i32 %.4
  %22 = tail call noundef ptr @_ZNK15cmStateSnapshot8GetStateEv(ptr noundef nonnull align 8 dereferenceable(24) %10)
  %23 = tail call noundef zeroext i1 @_ZNK7cmState14UseWatcomWMakeEv(ptr noundef nonnull align 8 dereferenceable(705) %22)
  %24 = or i32 %.5, 8
  %.6 = select i1 %23, i32 %24, i32 %.5
  %25 = tail call noundef ptr @_ZNK15cmStateSnapshot8GetStateEv(ptr noundef nonnull align 8 dereferenceable(24) %10)
  %26 = tail call noundef zeroext i1 @_ZNK7cmState12UseMinGWMakeEv(ptr noundef nonnull align 8 dereferenceable(705) %25)
  %27 = or i32 %.6, 16
  %.7 = select i1 %26, i32 %27, i32 %.6
  %28 = tail call noundef ptr @_ZNK15cmStateSnapshot8GetStateEv(ptr noundef nonnull align 8 dereferenceable(24) %10)
  %29 = tail call noundef zeroext i1 @_ZNK7cmState8UseNMakeEv(ptr noundef nonnull align 8 dereferenceable(705) %28)
  %30 = or i32 %.7, 32
  %.8 = select i1 %29, i32 %30, i32 %.7
  %31 = tail call noundef ptr @_ZNK15cmStateSnapshot8GetStateEv(ptr noundef nonnull align 8 dereferenceable(24) %10)
  %32 = tail call noundef zeroext i1 @_ZNK7cmState8UseNinjaEv(ptr noundef nonnull align 8 dereferenceable(705) %31)
  %33 = or i32 %.8, 2048
  %.9 = select i1 %32, i32 %33, i32 %.8
  %34 = tail call noundef ptr @_ZNK15cmStateSnapshot8GetStateEv(ptr noundef nonnull align 8 dereferenceable(24) %10)
  %35 = tail call noundef zeroext i1 @_ZNK7cmState15UseWindowsShellEv(ptr noundef nonnull align 8 dereferenceable(705) %34)
  %36 = or i32 %.9, 256
  %.10 = select i1 %35, i32 %.9, i32 %36
  tail call void @_ZN17cmOutputConverter14EscapeForShellB5cxx11ESt17basic_string_viewIcSt11char_traitsIcEEi(ptr dead_on_unwind writable sret(%"class.std::__cxx11::basic_string") align 8 %0, i64 %2, ptr %3, i32 noundef %.10)
  ret void
}